(lp1
(lp2
S'x'
aS'+'
aS'x'
aS'x'
aS'-'
aS'x'
aS'('
aS'x'
aS'-'
aS'x'
aS'x'
aS')'
aS'/'
aS'x'
aS'x'
aS'/'
aS'x'
aS'x'
aa(lp3
S'x'
aS'/'
aS'x'
aS'x'
aS'/'
aS'x'
aS'x'
aS'x'
aS'//'
p4
aS'x'
aS'x'
aS'x'
aS'%'
aS'x'
aS'x'
aS'*'
aS'x'
aS'+'
aS'x'
aa(lp5
S'x'
aS'**'
p6
aS'x'
aS'x'
aS'**'
p7
aS'x'
aa(lp8
S'x'
aS'='
aS'x'
aS'x'
aS'='
aS'x'
aS'*'
aS'x'
aS'x'
aS'*'
aS'x'
aa(lp9
S'x'
aa(lp10
S'x'
aS'*'
aS'x'
aS'x'
aS'/'
aS'x'
aS'x'
aS'x'
aS'x'
aS'/'
aS'x'
aa(lp11
S'x'
aS'='
aS'x'
aS'x'
aS'/'
aS'x'
aS'x'
aS'='
aS'x'
aS'x'
aS'x'
aS'*'
aS'x'
aS'x'
aS'+'
aS'x'
aS'x'
aS'('
aS'x'
aS'x'
aS')'
aa(lp12
S'x'
aS'x'
aS'x'
aS'x'
aS'x'
aS'x'
aS'x'
aS'x'
aS'x'
aS'x'
aS'x'
aS'x'
aS'x'
aS'x'
aa(lp13
S'x'
aS'x'
aS'x'
aS'x'
aS'print'
p14
aS'x'
aS'x'
aS'x'
aS'x'
aS'x'
aS'='
aS'x'
aS'x'
aS'x'
aS'x'
aS'x'
aS'x'
aS'print'
p15
aS'x'
aa(lp16
S'print'
p17
aS'x'
aS':'
aS'x'
aS'print'
p18
aS'x'
aS':'
aS'x'
aa(lp19
S'x'
aS'*'
aS'x'
aS'+'
aS'x'
aa(lp20
S'x'
aS'x'
aa(lp21
S'x'
aS'='
aS'x'
aS'x'
aS'x'
aS'('
aS'x'
aS'*'
aS'x'
aS')'
aS'x'
aa(lp22
S'x'
aS'+'
aS'x'
aa(lp23
S'x'
aS'='
aS'('
aS'x'
aS'x'
aS'x'
aS'x'
aS'x'
aS'x'
aS'x'
aS'x'
aS'x'
aS'x'
aS'x'
aS'x'
aS')'
aS'x'
aa(lp24
S'x'
aS'='
aS'x'
aS'x'
aS'['
aS'x'
aS']'
aS'x'
aS'['
aS'x'
aS']'
aa(lp25
S'x'
aS'['
aS'x'
aS']'
aS'x'
aS'['
aS'x'
aS']'
aS'x'
aS'['
aS'x'
aS']'
aa(lp26
S'x'
aS'['
aS'x'
aS':'
aS'x'
aS']'
aS'x'
aS'['
aS'x'
aS':'
aS'x'
aS']'
aa(lp27
S'x'
aS'['
aS':'
aS'x'
aS']'
aS'+'
aS'x'
aS'['
aS'x'
aS':'
aS']'
aS'x'
aS'['
aS':'
aS'x'
aS']'
aS'+'
aS'x'
aS'['
aS'x'
aS':'
aS']'
aa(lp28
S'x'
aS'['
aS':'
aS'x'
aS']'
aS'x'
aS'['
aS'x'
aS':'
aS']'
aS'x'
aS'['
aS'x'
aS':'
aS']'
aa(lp29
S'x'
aS'['
aS'x'
aS']'
aa(lp30
S'x'
aS'['
aS'x'
aS':'
aS'x'
aS']'
aS'x'
aS'['
aS'x'
aS':'
aS']'
aa(lp31
S'x'
aS'['
aS'x'
aS']'
aS'='
aS'x'
aS'x'
aS'['
aS'x'
aS':'
aS']'
aS'='
aS'x'
aa(lp32
S'x'
aS'+'
aS'x'
aS'['
aS'x'
aS':'
aS']'
aS'x'
aS'['
aS':'
aS'x'
aS']'
aS'+'
aS'x'
aa(lp33
S'x'
aS'='
aS'x'
aS'x'
aS'('
aS'x'
aS')'
aa(lp34
S'x'
aS'x'
aS'x'
aa(lp35
S'x'
aS'x'
aa(lp36
S'x'
aS'x'
aS'x'
aS'x'
aa(lp37
S'x'
aS'x'
aS'('
aS'x'
aS')'
aS'x'
aS'x'
aS'('
aS'x'
aS')'
aa(lp38
S'x'
aS'x'
aS'('
aS'x'
aS')'
aa(lp39
S'x'
aS'('
aS'x'
aS'x'
aS')'
aa(lp40
S'x'
aS'='
aS'['
aS'x'
aS'x'
aS'x'
aS'x'
aS'x'
aS']'
aS'x'
aa(lp41
S'x'
aS'['
aS'x'
aS']'
aS'x'
aS'['
aS'x'
aS']'
aS'x'
aS'['
aS'x'
aS':'
aS']'
aa(lp42
S'x'
aS'['
aS':'
aS']'
aa(lp43
S'x'
aS'+'
aS'['
aS'x'
aS'x'
aS'x'
aS'x'
aS'x'
aS']'
aa(lp44
S'x'
aS'='
aS'['
aS'x'
aS'x'
aS'x'
aS'x'
aS'x'
aS']'
aS'x'
aS'**'
p45
aS'x'
aS'x'
aS'['
aS'x'
aS']'
aS'='
aS'x'
aS'x'
aa(lp46
S'x'
aS'x'
aS'('
aS'x'
aS')'
aS'x'
aS'x'
aS'('
aS'x'
aS'**'
p47
aS'x'
aS')'
aS'x'
aa(lp48
S'x'
aS'='
aS'['
aS'x'
aS'x'
aS'x'
aS'x'
aS'x'
aS'x'
aS'x'
aS']'
aS'x'
aS'x'
aS'['
aS'x'
aS':'
aS'x'
aS']'
aS'='
aS'['
aS'x'
aS'x'
aS'x'
aS']'
aS'x'
aS'x'
aS'['
aS'x'
aS':'
aS'x'
aS']'
aS'='
aS'['
aS']'
aS'x'
aS'x'
aS'['
aS':'
aS']'
aS'='
aS'['
aS']'
aS'x'
aa(lp49
S'x'
aS'='
aS'['
aS'x'
aS'x'
aS'x'
aS'x'
aS']'
aS'x'
aS'('
aS'x'
aS')'
aa(lp50
S'x'
aS'='
aS'['
aS'x'
aS'x'
aS'x'
aS']'
aS'x'
aS'='
aS'['
aS'x'
aS'x'
aS'x'
aS']'
aS'x'
aS'='
aS'['
aS'x'
aS'x'
aS']'
aS'x'
aS'x'
aS'['
aS'x'
aS']'
aS'x'
aS'['
aS'x'
aS']'
aS'['
aS'x'
aS']'
aa(lp51
S'x'
aS'x'
aS'='
aS'x'
aS'x'
aS'while'
p52
aS'x'
aS'<'
aS'x'
aS':'
aS'print'
p53
aS'x'
aS'x'
aS'x'
aS'='
aS'x'
aS'x'
aa(lp54
S'x'
aS'='
aS'x'
aS'print'
p55
aS'x'
aS'x'
aS'x'
aS'x'
aS'x'
aS'x'
aa(lp56
S'x'
aS'x'
aS'='
aS'x'
aS'x'
aS'while'
p57
aS'x'
aS'<'
aS'x'
aS':'
aS'print'
p58
aS'x'
aS'x'
aS'x'
aS'='
aS'x'
aS'x'
aa(lp59
S'x'
aS'='
aS'x'
aS'('
aS'x'
aS'('
aS'x'
aS')'
aS')'
aS'if'
p60
aS'x'
aS'<'
aS'x'
aS':'
aS'x'
aS'='
aS'x'
aS'print'
p61
aS'x'
aS'x'
aS'x'
aS'x'
aS'elif'
p62
aS'x'
aS'=='
p63
aS'x'
aS':'
aS'print'
p64
aS'x'
aS'elif'
p65
aS'x'
aS'=='
p66
aS'x'
aS':'
aS'print'
p67
aS'x'
aS'else'
p68
aS':'
aS'print'
p69
aS'x'
aa(lp70
S'x'
aS'='
aS'['
aS'x'
aS'x'
aS'x'
aS']'
aS'for'
p71
aS'x'
aS'in'
p72
aS'x'
aS':'
aS'print'
p73
aS'x'
aS'x'
aS'('
aS'x'
aS')'
aa(lp74
S'for'
p75
aS'x'
aS'in'
p76
aS'x'
aS'['
aS':'
aS']'
aS':'
aS'if'
p77
aS'x'
aS'('
aS'x'
aS')'
aS'>'
aS'x'
aS':'
aS'x'
aS'x'
aS'('
aS'x'
aS'x'
aS')'
aS'x'
aa(lp78
S'x'
aS'('
aS'x'
aS')'
aa(lp79
S'x'
aS'('
aS'x'
aS'x'
aS')'
aS'x'
aS'('
aS'x'
aS'x'
aS'x'
aS')'
aS'x'
aS'('
aS'x'
aS'x'
aS'x'
aS')'
aa(lp80
S'x'
aS'='
aS'['
aS'x'
aS'x'
aS'x'
aS'x'
aS'x'
aS']'
aS'for'
p81
aS'x'
aS'in'
p82
aS'x'
aS'('
aS'x'
aS'('
aS'x'
aS')'
aS')'
aS':'
aS'print'
p83
aS'x'
aS'x'
aS'['
aS'x'
aS']'
aa(lp84
S'for'
p85
aS'x'
aS'in'
p86
aS'x'
aS'('
aS'x'
aS'x'
aS')'
aS':'
aS'for'
p87
aS'x'
aS'in'
p88
aS'x'
aS'('
aS'x'
aS'x'
aS')'
aS':'
aS'if'
p89
aS'x'
aS'%'
aS'x'
aS'=='
p90
aS'x'
aS':'
aS'print'
p91
aS'x'
aS'x'
aS'x'
aS'x'
aS'x'
aS'break'
p92
aS'else'
p93
aS':'
aS'print'
p94
aS'x'
aS'x'
aS'x'
aS'x'
aS'x'
aa(lp95
S'for'
p96
aS'x'
aS'in'
p97
aS'x'
aS'('
aS'x'
aS'x'
aS')'
aS':'
aS'if'
p98
aS'x'
aS'%'
aS'x'
aS'=='
p99
aS'x'
aS':'
aS'print'
p100
aS'x'
aS'x'
aS'continue'
p101
aS'print'
p102
aS'x'
aS'x'
aa(lp103
S'while'
p104
aS'x'
aS':'
aS'pass'
p105
aa(lp106
S'class'
p107
aS'x'
aS':'
aS'pass'
p108
aa(lp109
S'def'
p110
aS'x'
aS'('
aS'x'
aS')'
aS':'
aS'pass'
p111
aa(lp112
S'def'
p113
aS'x'
aS'('
aS'x'
aS')'
aS':'
aS'x'
aS'x'
aS'x'
aS'x'
aS'x'
aS'x'
aS'x'
aS'x'
aS'x'
aS'x'
aS'='
aS'x'
aS'x'
aS'while'
p114
aS'x'
aS'<'
aS'x'
aS':'
aS'print'
p115
aS'x'
aS'x'
aS'x'
aS'='
aS'x'
aS'x'
aS'x'
aS'('
aS'x'
aS')'
aa(lp116
S'x'
aS'x'
aS'='
aS'x'
aS'x'
aS'('
aS'x'
aS')'
aa(lp117
S'x'
aS'('
aS'x'
aS')'
aS'print'
p118
aS'x'
aS'('
aS'x'
aS')'
aa(lp119
S'def'
p120
aS'x'
aS'('
aS'x'
aS')'
aS':'
aS'x'
aS'x'
aS'x'
aS'x'
aS'x'
aS'x'
aS'x'
aS'x'
aS'x'
aS'x'
aS'x'
aS'x'
aS'='
aS'['
aS']'
aS'x'
aS'x'
aS'='
aS'x'
aS'x'
aS'while'
p121
aS'x'
aS'<'
aS'x'
aS':'
aS'x'
aS'x'
aS'('
aS'x'
aS')'
aS'x'
aS'x'
aS'='
aS'x'
aS'x'
aS'return'
p122
aS'x'
aS'x'
aS'='
aS'x'
aS'('
aS'x'
aS')'
aS'x'
aa(lp123
S'def'
p124
aS'x'
aS'('
aS'x'
aS')'
aS':'
aS'pass'
p125
aS'x'
aS'('
aS'x'
aS'x'
aS')'
aa(lp126
S'x'
aS'('
aS'x'
aS'x'
aS')'
aS'x'
aS'='
aS'['
aS'x'
aS'x'
aS']'
aS'x'
aS'('
aS'x'
aS')'
aa(lp127
S'def'
p128
aS'x'
aS'('
aS'x'
aS'x'
aS'x'
aS'x'
aS')'
aS':'
aS'print'
p129
aS'x'
aS'x'
aS'print'
p130
aS'x'
aS'x'
aS'x'
aS'print'
p131
aS'x'
aS'x'
aS'x'
aS'x'
aS'='
aS'x'
aS':'
aS'x'
aS'x'
aS':'
aS'x'
aS'x'
aS':'
aS'x'
aS'x'
aS'('
aS'x'
aS')'
aa(lp132
S'def'
p133
aS'x'
aS'('
aS'x'
aS')'
aS':'
aS'return'
p134
aS'lambda'
p135
aS'x'
aS':'
aS'x'
aS'+'
aS'x'
aS'x'
aS'='
aS'x'
aS'('
aS'x'
aS')'
aS'x'
aS'('
aS'x'
aS')'
aS'x'
aS'('
aS'x'
aS')'
aa(lp136
S'x'
aS'='
aS'['
aS'('
aS'x'
aS'x'
aS')'
aS'('
aS'x'
aS'x'
aS')'
aS'('
aS'x'
aS'x'
aS')'
aS'('
aS'x'
aS'x'
aS')'
aS']'
aS'x'
aS'x'
aS'('
aS'x'
aS'x'
aS':'
aS'x'
aS'['
aS'x'
aS']'
aS')'
aS'x'
aa(lp137
S'def'
p138
aS'x'
aS'('
aS')'
aS':'
aS'x'
aS'x'
aS'x'
aS'x'
aS'x'
aS'x'
aS'x'
aS'x'
aS'x'
aS'x'
aS'x'
aS'x'
aS'pass'
p139
aS'print'
p140
aS'x'
aS'__doc__'
p141
aa(lp142
S'x'
aS'='
aS'['
aS'x'
aS'x'
aS'x'
aS'x'
aS'x'
aS'x'
aS'x'
aS']'
aS'print'
p143
aS'x'
aS'x'
aS'('
aS'x'
aS')'
aS'x'
aS'x'
aS'('
aS'x'
aS'x'
aS')'
aS'x'
aS'x'
aS'('
aS'x'
aS')'
aS'x'
aS'x'
aS'('
aS'x'
aS'x'
aS')'
aS'x'
aS'x'
aS'('
aS'x'
aS')'
aS'x'
aS'x'
aS'x'
aS'('
aS'x'
aS')'
aS'x'
aS'x'
aS'('
aS'x'
aS')'
aS'x'
aS'x'
aS'x'
aS'('
aS')'
aS'x'
aS'x'
aS'x'
aS'('
aS')'
aS'x'
aS'x'
aS'pop'
p144
aS'('
aS')'
aS'x'
aa(lp145
S'x'
aS'='
aS'['
aS'x'
aS'x'
aS'x'
aS']'
aS'x'
aS'x'
aS'('
aS'x'
aS')'
aS'x'
aS'x'
aS'('
aS'x'
aS')'
aS'x'
aS'x'
aS'pop'
p146
aS'('
aS')'
aS'x'
aS'x'
aS'pop'
p147
aS'('
aS')'
aS'x'
aS'pop'
p148
aS'('
aS')'
aS'x'
aa(lp149
S'from'
p150
aS'x'
aS'import'
p151
aS'x'
aS'x'
aS'='
aS'x'
aS'('
aS'['
aS'x'
aS'x'
aS'x'
aS']'
aS')'
aS'x'
aS'x'
aS'('
aS'x'
aS')'
aS'x'
aS'x'
aS'('
aS'x'
aS')'
aS'x'
aS'x'
aS'('
aS')'
aS'x'
aS'x'
aS'('
aS')'
aS'x'
aa(lp152
S'def'
p153
aS'x'
aS'('
aS'x'
aS')'
aS':'
aS'return'
p154
aS'x'
aS'%'
aS'x'
aS'=='
p155
aS'x'
aS'or'
p156
aS'x'
aS'%'
aS'x'
aS'=='
p157
aS'x'
aS'x'
aS'('
aS'x'
aS'x'
aS'('
aS'x'
aS'x'
aS')'
aS')'
aa(lp158
S'def'
p159
aS'x'
aS'('
aS'x'
aS')'
aS':'
aS'return'
p160
aS'x'
aS'x'
aS'('
aS'x'
aS'x'
aS'('
aS'x'
aS'x'
aS')'
aS')'
aa(lp161
S'x'
aS'='
aS'x'
aS'('
aS'x'
aS')'
aS'def'
p162
aS'x'
aS'('
aS'x'
aS'x'
aS')'
aS':'
aS'return'
p163
aS'x'
aS'x'
aS'('
aS'x'
aS'x'
aS'x'
aS')'
aa(lp164
S'def'
p165
aS'x'
aS'('
aS'x'
aS'x'
aS')'
aS':'
aS'return'
p166
aS'x'
aS'x'
aS'('
aS'x'
aS'x'
aS'('
aS'x'
aS'x'
aS')'
aS')'
aa(lp167
S'def'
p168
aS'x'
aS'('
aS'x'
aS')'
aS':'
aS'def'
p169
aS'x'
aS'('
aS'x'
aS'x'
aS')'
aS':'
aS'return'
p170
aS'x'
aS'return'
p171
aS'x'
aS'('
aS'x'
aS'x'
aS'x'
aS')'
aS'x'
aS'('
aS'x'
aS'('
aS'x'
aS'x'
aS')'
aS')'
aS'x'
aS'('
aS'['
aS']'
aS')'
aa(lp172
S'x'
aS'='
aS'['
aS']'
aS'for'
p173
aS'x'
aS'in'
p174
aS'x'
aS'('
aS'x'
aS')'
aS':'
aS'x'
aS'x'
aS'('
aS'x'
aS')'
aS'x'
aa(lp175
S'['
aS'('
aS'x'
aS'x'
aS')'
aS'for'
p176
aS'x'
aS'in'
p177
aS'['
aS'x'
aS'x'
aS'x'
aS']'
aS'for'
p178
aS'x'
aS'in'
p179
aS'['
aS'x'
aS'x'
aS'x'
aS']'
aS'if'
p180
aS'x'
aS'!='
p181
aS'x'
aS']'
aa(lp182
S'x'
aS'='
aS'['
aS']'
aS'for'
p183
aS'x'
aS'in'
p184
aS'['
aS'x'
aS'x'
aS'x'
aS']'
aS':'
aS'for'
p185
aS'x'
aS'in'
p186
aS'['
aS'x'
aS'x'
aS'x'
aS']'
aS':'
aS'if'
p187
aS'x'
aS'!='
p188
aS'x'
aS':'
aS'x'
aS'x'
aS'('
aS'('
aS'x'
aS'x'
aS')'
aS')'
aS'x'
aa(lp189
S'x'
aS'='
aS'['
aS'x'
aS'x'
aS'x'
aS'x'
aS'x'
aS']'
aS'['
aS'x'
aS'for'
p190
aS'x'
aS'in'
p191
aS'x'
aS']'
aS'['
aS'x'
aS'for'
p192
aS'x'
aS'in'
p193
aS'x'
aS'if'
p194
aS'x'
aS'>='
p195
aS'x'
aS']'
aS'['
aS'x'
aS'('
aS'x'
aS')'
aS'for'
p196
aS'x'
aS'in'
p197
aS'x'
aS']'
aS'x'
aS'='
aS'['
aS'x'
aS'x'
aS'x'
aS'x'
aS'x'
aS'x'
aS'x'
aS'x'
aS']'
aS'['
aS'x'
aS'x'
aS'('
aS')'
aS'for'
p198
aS'x'
aS'in'
p199
aS'x'
aS']'
aS'['
aS'('
aS'x'
aS'x'
aS')'
aS'for'
p200
aS'x'
aS'in'
p201
aS'x'
aS'('
aS'x'
aS')'
aS']'
aS'['
aS'x'
aS'x'
aS'for'
p202
aS'x'
aS'in'
p203
aS'x'
aS'('
aS'x'
aS')'
aS']'
aS'x'
aS'='
aS'['
aS'['
aS'x'
aS'x'
aS'x'
aS']'
aS'['
aS'x'
aS'x'
aS'x'
aS']'
aS'['
aS'x'
aS'x'
aS'x'
aS']'
aS']'
aS'['
aS'x'
aS'for'
p204
aS'x'
aS'in'
p205
aS'x'
aS'for'
p206
aS'x'
aS'in'
p207
aS'x'
aS']'
aa(lp208
S'from'
p209
aS'x'
aS'import'
p210
aS'x'
aS'['
aS'x'
aS'('
aS'x'
aS'('
aS'x'
aS'x'
aS')'
aS')'
aS'for'
p211
aS'x'
aS'in'
p212
aS'x'
aS'('
aS'x'
aS'x'
aS')'
aS']'
aa(lp213
S'x'
aS'='
aS'['
aS'['
aS'x'
aS'x'
aS'x'
aS'x'
aS']'
aS'['
aS'x'
aS'x'
aS'x'
aS'x'
aS']'
aS'['
aS'x'
aS'x'
aS'x'
aS'x'
aS']'
aS']'
aa(lp214
S'['
aS'['
aS'x'
aS'['
aS'x'
aS']'
aS'for'
p215
aS'x'
aS'in'
p216
aS'x'
aS']'
aS'for'
p217
aS'x'
aS'in'
p218
aS'x'
aS'('
aS'x'
aS')'
aS']'
aa(lp219
S'x'
aS'='
aS'['
aS']'
aS'for'
p220
aS'x'
aS'in'
p221
aS'x'
aS'('
aS'x'
aS')'
aS':'
aS'x'
aS'x'
aS'('
aS'['
aS'x'
aS'['
aS'x'
aS']'
aS'for'
p222
aS'x'
aS'in'
p223
aS'x'
aS']'
aS')'
aS'x'
aa(lp224
S'x'
aS'='
aS'['
aS']'
aS'for'
p225
aS'x'
aS'in'
p226
aS'x'
aS'('
aS'x'
aS')'
aS':'
aS'x'
aS'='
aS'['
aS']'
aS'for'
p227
aS'x'
aS'in'
p228
aS'x'
aS':'
aS'x'
aS'x'
aS'('
aS'x'
aS'['
aS'x'
aS']'
aS')'
aS'x'
aS'x'
aS'('
aS'x'
aS')'
aS'x'
aa(lp229
S'x'
aS'('
aS'x'
aS')'
aa(lp230
S'x'
aS'='
aS'['
aS'x'
aS'x'
aS'x'
aS'x'
aS'x'
aS'x'
aS'x'
aS'x'
aS']'
aS'del'
p231
aS'x'
aS'['
aS'x'
aS']'
aS'x'
aS'del'
p232
aS'x'
aS'['
aS'x'
aS':'
aS'x'
aS']'
aS'x'
aS'del'
p233
aS'x'
aS'['
aS':'
aS']'
aS'x'
aa(lp234
S'del'
p235
aS'x'
aa(lp236
S'x'
aS'='
aS'x'
aS'x'
aS'x'
aS'x'
aS'['
aS'x'
aS']'
aS'x'
aS'x'
aS'='
aS'x'
aS'('
aS'x'
aS'x'
aS'x'
aS'x'
aS'x'
aS')'
aS'x'
aS'x'
aS'['
aS'x'
aS']'
aS'='
aS'x'
aS'x'
aS'='
aS'('
aS'['
aS'x'
aS'x'
aS'x'
aS']'
aS'['
aS'x'
aS'x'
aS'x'
aS']'
aS')'
aS'x'
aa(lp237
S'x'
aS'='
aS'('
aS')'
aS'x'
aS'='
aS'x'
aS'x'
aS'('
aS'x'
aS')'
aS'x'
aS'('
aS'x'
aS')'
aS'x'
aa(lp238
S'x'
aS'x'
aS'x'
aS'='
aS'x'
aa(lp239
S'x'
aS'='
aS'['
aS'x'
aS'x'
aS'x'
aS'x'
aS'x'
aS'x'
aS']'
aS'x'
aS'='
aS'x'
aS'('
aS'x'
aS')'
aS'x'
aS'x'
aS'in'
p240
aS'x'
aS'x'
aS'in'
p241
aS'x'
aS'x'
aS'='
aS'x'
aS'('
aS'x'
aS')'
aS'x'
aS'='
aS'x'
aS'('
aS'x'
aS')'
aS'x'
aS'x'
aS'-'
aS'x'
aS'x'
aS'x'
aS'x'
aS'x'
aS'x'
aS'x'
aS'x'
aS'x'
aS'x'
aa(lp242
S'x'
aS'='
aS'x'
aS'for'
p243
aS'x'
aS'in'
p244
aS'x'
aS'if'
p245
aS'x'
aS'not'
p246
aS'in'
p247
aS'x'
aS'x'
aa(lp248
S'x'
aS'='
aS'x'
aS':'
aS'x'
aS'x'
aS':'
aS'x'
aS'x'
aS'['
aS'x'
aS']'
aS'='
aS'x'
aS'x'
aS'x'
aS'['
aS'x'
aS']'
aS'del'
p249
aS'x'
aS'['
aS'x'
aS']'
aS'x'
aS'['
aS'x'
aS']'
aS'='
aS'x'
aS'x'
aS'x'
aS'keys'
p250
aS'('
aS')'
aS'x'
aS'in'
p251
aS'x'
aa(lp252
S'x'
aS'('
aS'['
aS'('
aS'x'
aS'x'
aS')'
aS'('
aS'x'
aS'x'
aS')'
aS'('
aS'x'
aS'x'
aS')'
aS']'
aS')'
aa(lp253
S'x'
aS':'
aS'x'
aS'for'
p254
aS'x'
aS'in'
p255
aS'('
aS'x'
aS'x'
aS'x'
aS')'
aS'}'
aa(lp256
S'x'
aS'('
aS'x'
aS'x'
aS'x'
aS')'
aa(lp257
S'for'
p258
aS'x'
aS'x'
aS'in'
p259
aS'x'
aS'('
aS'['
aS'x'
aS'x'
aS'x'
aS']'
aS')'
aS':'
aS'print'
p260
aS'x'
aS'x'
aa(lp261
S'x'
aS'='
aS'['
aS'x'
aS'x'
aS'x'
aS'x'
aS']'
aS'x'
aS'='
aS'['
aS'x'
aS'x'
aS'x'
aS'x'
aS'x'
aS']'
aS'for'
p262
aS'x'
aS'x'
aS'in'
p263
aS'x'
aS'('
aS'x'
aS'x'
aS')'
aS':'
aS'print'
p264
aS'x'
aS'is'
p265
aS'x'
aS'x'
aS'x'
aS'is'
p266
aS'x'
aS'x'
aS'x'
aS'('
aS'x'
aS'x'
aS')'
aa(lp267
S'for'
p268
aS'x'
aS'in'
p269
aS'x'
aS'('
aS'x'
aS'('
aS'x'
aS'x'
aS'x'
aS')'
aS')'
aS':'
aS'print'
p270
aS'x'
aa(lp271
S'x'
aS'='
aS'['
aS'x'
aS'x'
aS'x'
aS'x'
aS'x'
aS'x'
aS']'
aS'for'
p272
aS'x'
aS'in'
p273
aS'x'
aS'('
aS'x'
aS'('
aS'x'
aS')'
aS')'
aS':'
aS'print'
p274
aS'x'
aa(lp275
S'x'
aS'='
aS'x'
aS':'
aS'x'
aS'x'
aS'x'
aS':'
aS'x'
aS'x'
aS'for'
p276
aS'x'
aS'x'
aS'in'
p277
aS'x'
aS'iteritems'
p278
aS'('
aS')'
aS':'
aS'print'
p279
aS'x'
aS'x'
aa(lp280
S'import'
p281
aS'x'
aS'x'
aS'='
aS'['
aS'x'
aS'x'
aS'x'
aS'('
aS'x'
aS')'
aS'x'
aS'x'
aS'x'
aS'x'
aS'x'
aS'x'
aS'x'
aS'('
aS'x'
aS')'
aS'x'
aS'x'
aS']'
aS'x'
aS'='
aS'['
aS']'
aS'for'
p282
aS'x'
aS'in'
p283
aS'x'
aS':'
aS'if'
p284
aS'not'
p285
aS'x'
aS'x'
aS'('
aS'x'
aS')'
aS':'
aS'x'
aS'x'
aS'('
aS'x'
aS')'
aS'x'
aa(lp286
S'x'
aS'x'
aS'x'
aS'='
aS'x'
aS'x'
aS'x'
aS'x'
aS'x'
aS'='
aS'x'
aS'or'
p287
aS'x'
aS'or'
p288
aS'x'
aS'x'
aa(lp289
S'import'
p290
aS'x'
aa(lp291
S'x'
aS'x'
aS'('
aS'x'
aS')'
aS'x'
aS'x'
aS'('
aS'x'
aS')'
aS'x'
aS'x'
aa(lp292
S'x'
aS'='
aS'x'
aS'x'
aS'x'
aS'('
aS'x'
aS')'
aa(lp293
S'from'
p294
aS'x'
aS'import'
p295
aS'x'
aS'x'
aS'x'
aS'('
aS'x'
aS')'
aa(lp296
S'from'
p297
aS'x'
aS'import'
p298
aS'*'
aS'x'
aS'('
aS'x'
aS')'
aa(lp299
S'import'
p300
aS'x'
aa(lp301
S'import'
p302
aS'x'
aS'x'
aS'x'
aS'x'
aS'x'
aS'x'
aS'x'
aS'='
aS'x'
aS'x'
aa(lp303
S'import'
p304
aS'x'
aS'x'
aS'x'
aS'x'
aS'('
aS'x'
aS')'
aa(lp305
S'import'
p306
aS'x'
aS'x'
aS'x'
aS'('
aS'x'
aS')'
aS'x'
aS'('
aS'x'
aS')'
aa(lp307
S'x'
aS'='
aS'['
aS'x'
aS'x'
aS'x'
aS'x'
aS'x'
aS']'
aS'import'
p308
aS'x'
aS'x'
aS'='
aS'x'
aS'x'
aS'x'
aS'('
aS')'
aa(lp309
S'import'
p310
aS'x'
aS'x'
aS'('
aS'x'
aS')'
aa.