(lp1
(lp2
S'x'
aS'+'
aS'x'
aS'x'
aS'-'
aS'x'
aS'('
aS'x'
aS'-'
aS'x'
aS'x'
aS')'
aS'/'
aS'x'
aS'x'
aS'/'
aS'x'
aS'x'
aa(lp3
S'x'
aS'/'
aS'x'
aS'x'
aS'/'
aS'x'
aS'x'
aS'x'
aS'//'
p4
aS'x'
aS'x'
aS'x'
aS'%'
aS'x'
aS'x'
aS'*'
aS'x'
aS'+'
aS'x'
aa(lp5
S'x'
aS'**'
p6
aS'x'
aS'x'
aS'**'
p7
aS'x'
aa(lp8
S'x'
aS'='
aS'x'
aS'x'
aS'='
aS'x'
aS'*'
aS'x'
aS'x'
aS'*'
aS'x'
aa(lp9
S'x'
aS'*'
aS'x'
aS'x'
aS'/'
aS'x'
aS'x'
aS'x'
aS'x'
aS'/'
aS'x'
aa(lp10
S'x'
aS'='
aS'x'
aS'x'
aS'/'
aS'x'
aS'x'
aS'='
aS'x'
aS'x'
aS'x'
aS'*'
aS'x'
aS'x'
aS'+'
aS'x'
aS'round'
p11
aS'('
aS'x'
aS'x'
aS')'
aa(lp12
S'x'
aS'x'
aS'x'
aS'x'
aS'x'
aS'x'
aS'x'
aS'x'
aS'x'
aS'x'
aS'x'
aS'x'
aS'x'
aS'x'
aa(lp13
S'x'
aS'x'
aS'x'
aS'x'
aS'print'
p14
aS'x'
aS'x'
aS'x'
aS'x'
aS'x'
aS'='
aS'x'
aS'x'
aS'x'
aS'x'
aS'x'
aS'x'
aS'print'
p15
aS'x'
aa(lp16
S'print'
p17
aS'x'
aS':'
aS'x'
aS'print'
p18
aS'x'
aS':'
aS'x'
aa(lp19
S'x'
aS'*'
aS'x'
aS'+'
aS'x'
aa(lp20
S'x'
aS'x'
aa(lp21
S'x'
aS'='
aS'x'
aS'x'
aS'x'
aS'('
aS'x'
aS'*'
aS'x'
aS')'
aS'x'
aa(lp22
S'x'
aS'+'
aS'x'
aa(lp23
S'x'
aS'='
aS'('
aS'x'
aS'x'
aS'x'
aS'x'
aS'x'
aS'x'
aS'x'
aS'x'
aS'x'
aS'x'
aS'x'
aS'x'
aS')'
aS'x'
aa(lp24
S'x'
aS'='
aS'x'
aS'x'
aS'['
aS'x'
aS']'
aS'x'
aS'['
aS'x'
aS']'
aa(lp25
S'x'
aS'['
aS'x'
aS']'
aS'x'
aS'['
aS'x'
aS']'
aS'x'
aS'['
aS'x'
aS']'
aa(lp26
S'x'
aS'['
aS'x'
aS':'
aS'x'
aS']'
aS'x'
aS'['
aS'x'
aS':'
aS'x'
aS']'
aa(lp27
S'x'
aS'['
aS':'
aS'x'
aS']'
aS'+'
aS'x'
aS'['
aS'x'
aS':'
aS']'
aS'x'
aS'['
aS':'
aS'x'
aS']'
aS'+'
aS'x'
aS'['
aS'x'
aS':'
aS']'
aa(lp28
S'x'
aS'['
aS':'
aS'x'
aS']'
aS'x'
aS'['
aS'x'
aS':'
aS']'
aS'x'
aS'['
aS'x'
aS':'
aS']'
aa(lp29
S'x'
aS'['
aS'x'
aS']'
aa(lp30
S'x'
aS'['
aS'x'
aS':'
aS'x'
aS']'
aS'x'
aS'['
aS'x'
aS':'
aS']'
aa(lp31
S'x'
aS'['
aS'x'
aS']'
aS'='
aS'x'
aS'x'
aS'['
aS'x'
aS':'
aS']'
aS'='
aS'x'
aa(lp32
S'x'
aS'+'
aS'x'
aS'['
aS'x'
aS':'
aS']'
aS'x'
aS'['
aS':'
aS'x'
aS']'
aS'+'
aS'x'
aa(lp33
S'x'
aS'='
aS'x'
aS'len'
p34
aS'('
aS'x'
aS')'
aa(lp35
S'x'
aS'x'
aS'x'
aa(lp36
S'x'
aS'x'
aa(lp37
S'x'
aS'x'
aS'x'
aS'x'
aa(lp38
S'x'
aS'str'
p39
aS'('
aS'x'
aS')'
aS'x'
aS'str'
p40
aS'('
aS'x'
aS')'
aa(lp41
S'x'
aS'x'
aS'('
aS'x'
aS')'
aa(lp42
S'unicode'
p43
aS'('
aS'x'
aS'x'
aS')'
aa(lp44
S'x'
aS'='
aS'['
aS'x'
aS'x'
aS'x'
aS'x'
aS'x'
aS']'
aS'x'
aa(lp45
S'x'
aS'['
aS'x'
aS']'
aS'x'
aS'['
aS'x'
aS']'
aS'x'
aS'['
aS'x'
aS':'
aS']'
aa(lp46
S'x'
aS'['
aS':'
aS']'
aa(lp47
S'x'
aS'+'
aS'['
aS'x'
aS'x'
aS'x'
aS'x'
aS'x'
aS']'
aa(lp48
S'x'
aS'='
aS'['
aS'x'
aS'x'
aS'x'
aS'x'
aS'x'
aS']'
aS'x'
aS'**'
p49
aS'x'
aS'x'
aS'['
aS'x'
aS']'
aS'='
aS'x'
aS'x'
aa(lp50
S'x'
aS'x'
aS'('
aS'x'
aS')'
aS'x'
aS'x'
aS'('
aS'x'
aS'**'
p51
aS'x'
aS')'
aS'x'
aa(lp52
S'x'
aS'='
aS'['
aS'x'
aS'x'
aS'x'
aS'x'
aS'x'
aS'x'
aS'x'
aS']'
aS'x'
aS'x'
aS'['
aS'x'
aS':'
aS'x'
aS']'
aS'='
aS'['
aS'x'
aS'x'
aS'x'
aS']'
aS'x'
aS'x'
aS'['
aS'x'
aS':'
aS'x'
aS']'
aS'='
aS'['
aS']'
aS'x'
aS'x'
aS'['
aS':'
aS']'
aS'='
aS'['
aS']'
aS'x'
aa(lp53
S'x'
aS'='
aS'['
aS'x'
aS'x'
aS'x'
aS'x'
aS']'
aS'len'
p54
aS'('
aS'x'
aS')'
aa(lp55
S'x'
aS'='
aS'['
aS'x'
aS'x'
aS'x'
aS']'
aS'x'
aS'='
aS'['
aS'x'
aS'x'
aS'x'
aS']'
aS'x'
aS'='
aS'['
aS'x'
aS'x'
aS']'
aS'x'
aS'x'
aS'['
aS'x'
aS']'
aS'x'
aS'['
aS'x'
aS']'
aS'['
aS'x'
aS']'
aa(lp56
S'x'
aS'x'
aS'='
aS'x'
aS'x'
aS'while'
p57
aS'x'
aS'<'
aS'x'
aS':'
aS'print'
p58
aS'x'
aS'x'
aS'x'
aS'='
aS'x'
aS'x'
aa(lp59
S'x'
aS'='
aS'x'
aS'print'
p60
aS'x'
aS'x'
aS'x'
aS'x'
aS'x'
aS'x'
aa(lp61
S'x'
aS'x'
aS'='
aS'x'
aS'x'
aS'while'
p62
aS'x'
aS'<'
aS'x'
aS':'
aS'print'
p63
aS'x'
aS'x'
aS'x'
aS'='
aS'x'
aS'x'
aa(lp64
S'x'
aS'='
aS'int'
p65
aS'('
aS'raw_input'
p66
aS'('
aS'x'
aS')'
aS')'
aS'if'
p67
aS'x'
aS'<'
aS'x'
aS':'
aS'x'
aS'='
aS'x'
aS'print'
p68
aS'x'
aS'x'
aS'x'
aS'x'
aS'elif'
p69
aS'x'
aS'=='
p70
aS'x'
aS':'
aS'print'
p71
aS'x'
aS'elif'
p72
aS'x'
aS'=='
p73
aS'x'
aS':'
aS'print'
p74
aS'x'
aS'else'
p75
aS':'
aS'print'
p76
aS'x'
aa(lp77
S'x'
aS'='
aS'['
aS'x'
aS'x'
aS'x'
aS']'
aS'for'
p78
aS'x'
aS'in'
p79
aS'x'
aS':'
aS'print'
p80
aS'x'
aS'len'
p81
aS'('
aS'x'
aS')'
aa(lp82
S'for'
p83
aS'x'
aS'in'
p84
aS'x'
aS'['
aS':'
aS']'
aS':'
aS'if'
p85
aS'len'
p86
aS'('
aS'x'
aS')'
aS'>'
aS'x'
aS':'
aS'x'
aS'x'
aS'('
aS'x'
aS'x'
aS')'
aS'x'
aa(lp87
S'range'
p88
aS'('
aS'x'
aS')'
aa(lp89
S'range'
p90
aS'('
aS'x'
aS'x'
aS')'
aS'range'
p91
aS'('
aS'x'
aS'x'
aS'x'
aS')'
aS'range'
p92
aS'('
aS'x'
aS'x'
aS'x'
aS')'
aa(lp93
S'x'
aS'='
aS'['
aS'x'
aS'x'
aS'x'
aS'x'
aS'x'
aS']'
aS'for'
p94
aS'x'
aS'in'
p95
aS'range'
p96
aS'('
aS'len'
p97
aS'('
aS'x'
aS')'
aS')'
aS':'
aS'print'
p98
aS'x'
aS'x'
aS'['
aS'x'
aS']'
aa(lp99
S'for'
p100
aS'x'
aS'in'
p101
aS'range'
p102
aS'('
aS'x'
aS'x'
aS')'
aS':'
aS'for'
p103
aS'x'
aS'in'
p104
aS'range'
p105
aS'('
aS'x'
aS'x'
aS')'
aS':'
aS'if'
p106
aS'x'
aS'%'
aS'x'
aS'=='
p107
aS'x'
aS':'
aS'print'
p108
aS'x'
aS'x'
aS'x'
aS'x'
aS'x'
aS'break'
p109
aS'else'
p110
aS':'
aS'print'
p111
aS'x'
aS'x'
aS'x'
aS'x'
aS'x'
aa(lp112
S'for'
p113
aS'x'
aS'in'
p114
aS'range'
p115
aS'('
aS'x'
aS'x'
aS')'
aS':'
aS'if'
p116
aS'x'
aS'%'
aS'x'
aS'=='
p117
aS'x'
aS':'
aS'print'
p118
aS'x'
aS'x'
aS'continue'
p119
aS'print'
p120
aS'x'
aS'x'
aa(lp121
S'while'
p122
aS'True'
p123
aS':'
aS'pass'
p124
aa(lp125
S'class'
p126
aS'x'
aS':'
aS'pass'
p127
aa(lp128
S'def'
p129
aS'x'
aS'('
aS'x'
aS')'
aS':'
aS'pass'
p130
aa(lp131
S'def'
p132
aS'x'
aS'('
aS'x'
aS')'
aS':'
aS'x'
aS'x'
aS'x'
aS'x'
aS'x'
aS'x'
aS'x'
aS'x'
aS'x'
aS'x'
aS'='
aS'x'
aS'x'
aS'while'
p133
aS'x'
aS'<'
aS'x'
aS':'
aS'print'
p134
aS'x'
aS'x'
aS'x'
aS'='
aS'x'
aS'x'
aS'x'
aS'('
aS'x'
aS')'
aa(lp135
S'x'
aS'x'
aS'='
aS'x'
aS'x'
aS'('
aS'x'
aS')'
aa(lp136
S'x'
aS'('
aS'x'
aS')'
aS'print'
p137
aS'x'
aS'('
aS'x'
aS')'
aa(lp138
S'def'
p139
aS'x'
aS'('
aS'x'
aS')'
aS':'
aS'x'
aS'x'
aS'list'
p140
aS'x'
aS'x'
aS'x'
aS'x'
aS'x'
aS'x'
aS'x'
aS'x'
aS'x'
aS'='
aS'['
aS']'
aS'x'
aS'x'
aS'='
aS'x'
aS'x'
aS'while'
p141
aS'x'
aS'<'
aS'x'
aS':'
aS'x'
aS'x'
aS'('
aS'x'
aS')'
aS'x'
aS'x'
aS'='
aS'x'
aS'x'
aS'return'
p142
aS'x'
aS'x'
aS'='
aS'x'
aS'('
aS'x'
aS')'
aS'x'
aa(lp143
S'def'
p144
aS'x'
aS'('
aS'x'
aS')'
aS':'
aS'pass'
p145
aS'x'
aS'('
aS'x'
aS'x'
aS')'
aa(lp146
S'range'
p147
aS'('
aS'x'
aS'x'
aS')'
aS'x'
aS'='
aS'['
aS'x'
aS'x'
aS']'
aS'range'
p148
aS'('
aS'x'
aS')'
aa(lp149
S'def'
p150
aS'x'
aS'('
aS'x'
aS'x'
aS'x'
aS'x'
aS')'
aS':'
aS'print'
p151
aS'x'
aS'x'
aS'print'
p152
aS'x'
aS'x'
aS'x'
aS'print'
p153
aS'x'
aS'x'
aS'x'
aS'x'
aS'='
aS'{'
aS'x'
aS':'
aS'x'
aS'x'
aS':'
aS'x'
aS'x'
aS':'
aS'x'
aS'}'
aS'x'
aS'('
aS'x'
aS')'
aa(lp154
S'def'
p155
aS'x'
aS'('
aS'x'
aS')'
aS':'
aS'return'
p156
aS'lambda'
p157
aS'x'
aS':'
aS'x'
aS'+'
aS'x'
aS'x'
aS'='
aS'x'
aS'('
aS'x'
aS')'
aS'x'
aS'('
aS'x'
aS')'
aS'x'
aS'('
aS'x'
aS')'
aa(lp158
S'x'
aS'='
aS'['
aS'('
aS'x'
aS'x'
aS')'
aS'('
aS'x'
aS'x'
aS')'
aS'('
aS'x'
aS'x'
aS')'
aS'('
aS'x'
aS'x'
aS')'
aS']'
aS'x'
aS'x'
aS'('
aS'x'
aS'x'
aS':'
aS'x'
aS'['
aS'x'
aS']'
aS')'
aS'x'
aa(lp159
S'def'
p160
aS'x'
aS'('
aS')'
aS':'
aS'x'
aS'x'
aS'x'
aS'x'
aS'x'
aS'x'
aS'x'
aS'x'
aS'x'
aS'x'
aS'x'
aS'x'
aS'pass'
p161
aS'print'
p162
aS'x'
aS'__doc__'
p163
aa(lp164
S'x'
aS'='
aS'['
aS'x'
aS'x'
aS'x'
aS'x'
aS'x'
aS'x'
aS'x'
aS']'
aS'print'
p165
aS'x'
aS'x'
aS'('
aS'x'
aS')'
aS'x'
aS'x'
aS'('
aS'x'
aS'x'
aS')'
aS'x'
aS'x'
aS'('
aS'x'
aS')'
aS'x'
aS'x'
aS'('
aS'x'
aS'x'
aS')'
aS'x'
aS'x'
aS'('
aS'x'
aS')'
aS'x'
aS'x'
aS'x'
aS'('
aS'x'
aS')'
aS'x'
aS'x'
aS'('
aS'x'
aS')'
aS'x'
aS'x'
aS'x'
aS'('
aS')'
aS'x'
aS'x'
aS'x'
aS'('
aS')'
aS'x'
aS'x'
aS'x'
aS'('
aS')'
aS'x'
aa(lp166
S'x'
aS'='
aS'['
aS'x'
aS'x'
aS'x'
aS']'
aS'x'
aS'x'
aS'('
aS'x'
aS')'
aS'x'
aS'x'
aS'('
aS'x'
aS')'
aS'x'
aS'x'
aS'x'
aS'('
aS')'
aS'x'
aS'x'
aS'x'
aS'('
aS')'
aS'x'
aS'x'
aS'('
aS')'
aS'x'
aa(lp167
S'from'
p168
aS'x'
aS'import'
p169
aS'x'
aS'x'
aS'='
aS'x'
aS'('
aS'['
aS'x'
aS'x'
aS'x'
aS']'
aS')'
aS'x'
aS'x'
aS'('
aS'x'
aS')'
aS'x'
aS'x'
aS'('
aS'x'
aS')'
aS'x'
aS'x'
aS'('
aS')'
aS'x'
aS'x'
aS'('
aS')'
aS'x'
aa(lp170
S'def'
p171
aS'x'
aS'('
aS'x'
aS')'
aS':'
aS'return'
p172
aS'x'
aS'%'
aS'x'
aS'=='
p173
aS'x'
aS'or'
p174
aS'x'
aS'%'
aS'x'
aS'=='
p175
aS'x'
aS'filter'
p176
aS'('
aS'x'
aS'range'
p177
aS'('
aS'x'
aS'x'
aS')'
aS')'
aa(lp178
S'def'
p179
aS'x'
aS'('
aS'x'
aS')'
aS':'
aS'return'
p180
aS'x'
aS'map'
p181
aS'('
aS'x'
aS'range'
p182
aS'('
aS'x'
aS'x'
aS')'
aS')'
aa(lp183
S'x'
aS'='
aS'range'
p184
aS'('
aS'x'
aS')'
aS'def'
p185
aS'x'
aS'('
aS'x'
aS'x'
aS')'
aS':'
aS'return'
p186
aS'x'
aS'map'
p187
aS'('
aS'x'
aS'x'
aS'x'
aS')'
aa(lp188
S'def'
p189
aS'x'
aS'('
aS'x'
aS'x'
aS')'
aS':'
aS'return'
p190
aS'x'
aS'reduce'
p191
aS'('
aS'x'
aS'range'
p192
aS'('
aS'x'
aS'x'
aS')'
aS')'
aa(lp193
S'def'
p194
aS'sum'
p195
aS'('
aS'x'
aS')'
aS':'
aS'def'
p196
aS'x'
aS'('
aS'x'
aS'x'
aS')'
aS':'
aS'return'
p197
aS'x'
aS'return'
p198
aS'reduce'
p199
aS'('
aS'x'
aS'x'
aS'x'
aS')'
aS'sum'
p200
aS'('
aS'range'
p201
aS'('
aS'x'
aS'x'
aS')'
aS')'
aS'sum'
p202
aS'('
aS'['
aS']'
aS')'
aa(lp203
S'x'
aS'='
aS'['
aS']'
aS'for'
p204
aS'x'
aS'in'
p205
aS'range'
p206
aS'('
aS'x'
aS')'
aS':'
aS'x'
aS'x'
aS'('
aS'x'
aS')'
aS'x'
aa(lp207
S'['
aS'('
aS'x'
aS'x'
aS')'
aS'for'
p208
aS'x'
aS'in'
p209
aS'['
aS'x'
aS'x'
aS'x'
aS']'
aS'for'
p210
aS'x'
aS'in'
p211
aS'['
aS'x'
aS'x'
aS'x'
aS']'
aS'if'
p212
aS'x'
aS'!='
p213
aS'x'
aS']'
aa(lp214
S'x'
aS'='
aS'['
aS']'
aS'for'
p215
aS'x'
aS'in'
p216
aS'['
aS'x'
aS'x'
aS'x'
aS']'
aS':'
aS'for'
p217
aS'x'
aS'in'
p218
aS'['
aS'x'
aS'x'
aS'x'
aS']'
aS':'
aS'if'
p219
aS'x'
aS'!='
p220
aS'x'
aS':'
aS'x'
aS'x'
aS'('
aS'('
aS'x'
aS'x'
aS')'
aS')'
aS'x'
aa(lp221
S'x'
aS'='
aS'['
aS'x'
aS'x'
aS'x'
aS'x'
aS'x'
aS']'
aS'['
aS'x'
aS'for'
p222
aS'x'
aS'in'
p223
aS'x'
aS']'
aS'['
aS'x'
aS'for'
p224
aS'x'
aS'in'
p225
aS'x'
aS'if'
p226
aS'x'
aS'>='
p227
aS'x'
aS']'
aS'['
aS'abs'
p228
aS'('
aS'x'
aS')'
aS'for'
p229
aS'x'
aS'in'
p230
aS'x'
aS']'
aS'x'
aS'='
aS'['
aS'x'
aS'x'
aS'x'
aS'x'
aS'x'
aS'x'
aS'x'
aS'x'
aS']'
aS'['
aS'x'
aS'x'
aS'('
aS')'
aS'for'
p231
aS'x'
aS'in'
p232
aS'x'
aS']'
aS'['
aS'('
aS'x'
aS'x'
aS')'
aS'for'
p233
aS'x'
aS'in'
p234
aS'range'
p235
aS'('
aS'x'
aS')'
aS']'
aS'['
aS'x'
aS'x'
aS'for'
p236
aS'x'
aS'in'
p237
aS'range'
p238
aS'('
aS'x'
aS')'
aS']'
aS'x'
aS'='
aS'['
aS'['
aS'x'
aS'x'
aS'x'
aS']'
aS'['
aS'x'
aS'x'
aS'x'
aS']'
aS'['
aS'x'
aS'x'
aS'x'
aS']'
aS']'
aS'['
aS'x'
aS'for'
p239
aS'x'
aS'in'
p240
aS'x'
aS'for'
p241
aS'x'
aS'in'
p242
aS'x'
aS']'
aa(lp243
S'from'
p244
aS'x'
aS'import'
p245
aS'x'
aS'['
aS'str'
p246
aS'('
aS'round'
p247
aS'('
aS'x'
aS'x'
aS')'
aS')'
aS'for'
p248
aS'x'
aS'in'
p249
aS'range'
p250
aS'('
aS'x'
aS'x'
aS')'
aS']'
aa(lp251
S'x'
aS'='
aS'['
aS'['
aS'x'
aS'x'
aS'x'
aS'x'
aS']'
aS'['
aS'x'
aS'x'
aS'x'
aS'x'
aS']'
aS'['
aS'x'
aS'x'
aS'x'
aS'x'
aS']'
aS']'
aa(lp252
S'['
aS'['
aS'x'
aS'['
aS'x'
aS']'
aS'for'
p253
aS'x'
aS'in'
p254
aS'x'
aS']'
aS'for'
p255
aS'x'
aS'in'
p256
aS'range'
p257
aS'('
aS'x'
aS')'
aS']'
aa(lp258
S'x'
aS'='
aS'['
aS']'
aS'for'
p259
aS'x'
aS'in'
p260
aS'range'
p261
aS'('
aS'x'
aS')'
aS':'
aS'x'
aS'x'
aS'('
aS'['
aS'x'
aS'['
aS'x'
aS']'
aS'for'
p262
aS'x'
aS'in'
p263
aS'x'
aS']'
aS')'
aS'x'
aa(lp264
S'x'
aS'='
aS'['
aS']'
aS'for'
p265
aS'x'
aS'in'
p266
aS'range'
p267
aS'('
aS'x'
aS')'
aS':'
aS'x'
aS'='
aS'['
aS']'
aS'for'
p268
aS'x'
aS'in'
p269
aS'x'
aS':'
aS'x'
aS'x'
aS'('
aS'x'
aS'['
aS'x'
aS']'
aS')'
aS'x'
aS'x'
aS'('
aS'x'
aS')'
aS'x'
aa(lp270
S'zip'
p271
aS'('
aS'x'
aS')'
aa(lp272
S'x'
aS'='
aS'['
aS'x'
aS'x'
aS'x'
aS'x'
aS'x'
aS'x'
aS'x'
aS'x'
aS']'
aS'del'
p273
aS'x'
aS'['
aS'x'
aS']'
aS'x'
aS'del'
p274
aS'x'
aS'['
aS'x'
aS':'
aS'x'
aS']'
aS'x'
aS'del'
p275
aS'x'
aS'['
aS':'
aS']'
aS'x'
aa(lp276
S'del'
p277
aS'x'
aa(lp278
S'x'
aS'='
aS'x'
aS'x'
aS'x'
aS'x'
aS'['
aS'x'
aS']'
aS'x'
aS'x'
aS'='
aS'x'
aS'('
aS'x'
aS'x'
aS'x'
aS'x'
aS'x'
aS')'
aS'x'
aS'x'
aS'['
aS'x'
aS']'
aS'='
aS'x'
aS'x'
aS'='
aS'('
aS'['
aS'x'
aS'x'
aS'x'
aS']'
aS'['
aS'x'
aS'x'
aS'x'
aS']'
aS')'
aS'x'
aa(lp279
S'x'
aS'='
aS'('
aS')'
aS'x'
aS'='
aS'x'
aS'len'
p280
aS'('
aS'x'
aS')'
aS'len'
p281
aS'('
aS'x'
aS')'
aS'x'
aa(lp282
S'x'
aS'x'
aS'x'
aS'='
aS'x'
aa(lp283
S'x'
aS'='
aS'['
aS'x'
aS'x'
aS'x'
aS'x'
aS'x'
aS'x'
aS']'
aS'x'
aS'='
aS'set'
p284
aS'('
aS'x'
aS')'
aS'x'
aS'x'
aS'in'
p285
aS'x'
aS'x'
aS'in'
p286
aS'x'
aS'x'
aS'='
aS'set'
p287
aS'('
aS'x'
aS')'
aS'x'
aS'='
aS'set'
p288
aS'('
aS'x'
aS')'
aS'x'
aS'x'
aS'-'
aS'x'
aS'x'
aS'x'
aS'x'
aS'x'
aS'x'
aS'x'
aS'x'
aS'x'
aS'x'
aa(lp289
S'x'
aS'='
aS'{'
aS'x'
aS'for'
p290
aS'x'
aS'in'
p291
aS'x'
aS'if'
p292
aS'x'
aS'not'
p293
aS'in'
p294
aS'x'
aS'}'
aS'x'
aa(lp295
S'x'
aS'='
aS'{'
aS'x'
aS':'
aS'x'
aS'x'
aS':'
aS'x'
aS'}'
aS'x'
aS'['
aS'x'
aS']'
aS'='
aS'x'
aS'x'
aS'x'
aS'['
aS'x'
aS']'
aS'del'
p296
aS'x'
aS'['
aS'x'
aS']'
aS'x'
aS'['
aS'x'
aS']'
aS'='
aS'x'
aS'x'
aS'x'
aS'x'
aS'('
aS')'
aS'x'
aS'in'
p297
aS'x'
aa(lp298
S'dict'
p299
aS'('
aS'['
aS'('
aS'x'
aS'x'
aS')'
aS'('
aS'x'
aS'x'
aS')'
aS'('
aS'x'
aS'x'
aS')'
aS']'
aS')'
aa(lp300
S'{'
aS'x'
aS':'
aS'x'
aS'for'
p301
aS'x'
aS'in'
p302
aS'('
aS'x'
aS'x'
aS'x'
aS')'
aS'}'
aa(lp303
S'dict'
p304
aS'('
aS'x'
aS'x'
aS'x'
aS')'
aa(lp305
S'for'
p306
aS'x'
aS'x'
aS'in'
p307
aS'enumerate'
p308
aS'('
aS'['
aS'x'
aS'x'
aS'x'
aS']'
aS')'
aS':'
aS'print'
p309
aS'x'
aS'x'
aa(lp310
S'x'
aS'='
aS'['
aS'x'
aS'x'
aS'x'
aS'x'
aS']'
aS'x'
aS'='
aS'['
aS'x'
aS'x'
aS'x'
aS'x'
aS'x'
aS']'
aS'for'
p311
aS'x'
aS'x'
aS'in'
p312
aS'zip'
p313
aS'('
aS'x'
aS'x'
aS')'
aS':'
aS'print'
p314
aS'x'
aS'is'
p315
aS'x'
aS'{'
aS'x'
aS'}'
aS'x'
aS'x'
aS'is'
p316
aS'{'
aS'x'
aS'}'
aS'x'
aS'format'
p317
aS'('
aS'x'
aS'x'
aS')'
aa(lp318
S'for'
p319
aS'x'
aS'in'
p320
aS'reversed'
p321
aS'('
aS'xrange'
p322
aS'('
aS'x'
aS'x'
aS'x'
aS')'
aS')'
aS':'
aS'print'
p323
aS'x'
aa(lp324
S'x'
aS'='
aS'['
aS'x'
aS'x'
aS'x'
aS'x'
aS'x'
aS'x'
aS']'
aS'for'
p325
aS'x'
aS'in'
p326
aS'sorted'
p327
aS'('
aS'set'
p328
aS'('
aS'x'
aS')'
aS')'
aS':'
aS'print'
p329
aS'x'
aa(lp330
S'x'
aS'='
aS'{'
aS'x'
aS':'
aS'x'
aS'x'
aS'x'
aS':'
aS'x'
aS'x'
aS'}'
aS'for'
p331
aS'x'
aS'x'
aS'in'
p332
aS'x'
aS'x'
aS'('
aS')'
aS':'
aS'print'
p333
aS'x'
aS'x'
aa(lp334
S'import'
p335
aS'x'
aS'x'
aS'='
aS'['
aS'x'
aS'x'
aS'float'
p336
aS'('
aS'x'
aS')'
aS'x'
aS'x'
aS'x'
aS'x'
aS'x'
aS'x'
aS'float'
p337
aS'('
aS'x'
aS')'
aS'x'
aS'x'
aS']'
aS'x'
aS'='
aS'['
aS']'
aS'for'
p338
aS'x'
aS'in'
p339
aS'x'
aS':'
aS'if'
p340
aS'not'
p341
aS'x'
aS'x'
aS'('
aS'x'
aS')'
aS':'
aS'x'
aS'x'
aS'('
aS'x'
aS')'
aS'x'
aa(lp342
S'x'
aS'x'
aS'x'
aS'='
aS'x'
aS'x'
aS'x'
aS'x'
aS'x'
aS'='
aS'x'
aS'or'
p343
aS'x'
aS'or'
p344
aS'x'
aS'x'
aa(lp345
S'import'
p346
aS'x'
aa(lp347
S'x'
aS'x'
aS'('
aS'x'
aS')'
aS'x'
aS'x'
aS'('
aS'x'
aS')'
aS'x'
aS'__name__'
p348
aa(lp349
S'x'
aS'='
aS'x'
aS'x'
aS'x'
aS'('
aS'x'
aS')'
aa(lp350
S'from'
p351
aS'x'
aS'import'
p352
aS'x'
aS'x'
aS'x'
aS'('
aS'x'
aS')'
aa(lp353
S'from'
p354
aS'x'
aS'import'
p355
aS'*'
aS'x'
aS'('
aS'x'
aS')'
aa(lp356
S'import'
p357
aS'x'
aa(lp358
S'import'
p359
aS'x'
aS'x'
aS'x'
aS'x'
aS'x'
aS'x'
aS'x'
aS'='
aS'x'
aS'x'
aa(lp360
S'import'
p361
aS'x'
aS'x'
aS'x'
aS'x'
aS'('
aS'x'
aS')'
aa(lp362
S'import'
p363
aS'x'
aS'x'
aS'dir'
p364
aS'('
aS'x'
aS')'
aS'dir'
p365
aS'('
aS'x'
aS')'
aa(lp366
S'x'
aS'='
aS'['
aS'x'
aS'x'
aS'x'
aS'x'
aS'x'
aS']'
aS'import'
p367
aS'x'
aS'x'
aS'='
aS'x'
aS'x'
aS'dir'
p368
aS'('
aS')'
aa(lp369
S'import'
p370
aS'x'
aS'dir'
p371
aS'('
aS'x'
aS')'
aa.