(lp1
(lp2
S'x'
aS'+'
aS'x'
aS'x'
aS'-'
aS'x'
aS'('
aS'x'
aS'-'
aS'x'
aS'x'
aS')'
aS'/'
aS'x'
aS'x'
aS'/'
aS'x'
aS'x'
aa(lp3
S'x'
aS'/'
aS'x'
aS'x'
aS'/'
aS'x'
aS'x'
aS'x'
aS'//'
p4
aS'x'
aS'x'
aS'x'
aS'%'
aS'x'
aS'x'
aS'*'
aS'x'
aS'+'
aS'x'
aa(lp5
S'x'
aS'**'
p6
aS'x'
aS'x'
aS'**'
p7
aS'x'
aa(lp8
S'x'
aS'='
aS'x'
aS'x'
aS'='
aS'x'
aS'*'
aS'x'
aS'x'
aS'*'
aS'x'
aa(lp9
S'x'
aa(lp10
S'x'
aS'*'
aS'x'
aS'x'
aS'/'
aS'x'
aS'x'
aS'x'
aS'x'
aS'/'
aS'x'
aa(lp11
S'x'
aS'='
aS'x'
aS'x'
aS'/'
aS'x'
aS'x'
aS'='
aS'x'
aS'x'
aS'x'
aS'*'
aS'x'
aS'x'
aS'+'
aS'x'
aS'round'
p12
aS'('
aS'x'
aS'x'
aS')'
aa(lp13
S'x'
aS'x'
aS'x'
aS'x'
aS'x'
aS'x'
aS'x'
aS'x'
aS'x'
aS'x'
aS'x'
aS'x'
aS'x'
aS'x'
aa(lp14
S'x'
aS'x'
aS'x'
aS'x'
aS'print'
p15
aS'x'
aS'x'
aS'x'
aS'x'
aS'x'
aS'='
aS'x'
aS'x'
aS'x'
aS'x'
aS'x'
aS'x'
aS'print'
p16
aS'x'
aa(lp17
S'print'
p18
aS'x'
aS':'
aS'x'
aS'print'
p19
aS'x'
aS':'
aS'x'
aa(lp20
S'x'
aS'*'
aS'x'
aS'+'
aS'x'
aa(lp21
S'x'
aS'x'
aa(lp22
S'x'
aS'='
aS'x'
aS'x'
aS'x'
aS'('
aS'x'
aS'*'
aS'x'
aS')'
aS'x'
aa(lp23
S'x'
aS'+'
aS'x'
aa(lp24
S'x'
aS'='
aS'('
aS'x'
aS'x'
aS'x'
aS'x'
aS'x'
aS'x'
aS'x'
aS'x'
aS'x'
aS'x'
aS'x'
aS'x'
aS')'
aS'x'
aa(lp25
S'x'
aS'='
aS'x'
aS'x'
aS'['
aS'x'
aS']'
aS'x'
aS'['
aS'x'
aS']'
aa(lp26
S'x'
aS'['
aS'x'
aS']'
aS'x'
aS'['
aS'x'
aS']'
aS'x'
aS'['
aS'x'
aS']'
aa(lp27
S'x'
aS'['
aS'x'
aS':'
aS'x'
aS']'
aS'x'
aS'['
aS'x'
aS':'
aS'x'
aS']'
aa(lp28
S'x'
aS'['
aS':'
aS'x'
aS']'
aS'+'
aS'x'
aS'['
aS'x'
aS':'
aS']'
aS'x'
aS'['
aS':'
aS'x'
aS']'
aS'+'
aS'x'
aS'['
aS'x'
aS':'
aS']'
aa(lp29
S'x'
aS'['
aS':'
aS'x'
aS']'
aS'x'
aS'['
aS'x'
aS':'
aS']'
aS'x'
aS'['
aS'x'
aS':'
aS']'
aa(lp30
S'x'
aS'['
aS'x'
aS']'
aa(lp31
S'x'
aS'['
aS'x'
aS':'
aS'x'
aS']'
aS'x'
aS'['
aS'x'
aS':'
aS']'
aa(lp32
S'x'
aS'['
aS'x'
aS']'
aS'='
aS'x'
aS'x'
aS'['
aS'x'
aS':'
aS']'
aS'='
aS'x'
aa(lp33
S'x'
aS'+'
aS'x'
aS'['
aS'x'
aS':'
aS']'
aS'x'
aS'['
aS':'
aS'x'
aS']'
aS'+'
aS'x'
aa(lp34
S'x'
aS'='
aS'x'
aS'len'
p35
aS'('
aS'x'
aS')'
aa(lp36
S'x'
aS'x'
aS'x'
aa(lp37
S'x'
aS'x'
aa(lp38
S'x'
aS'x'
aS'x'
aS'x'
aa(lp39
S'x'
aS'str'
p40
aS'('
aS'x'
aS')'
aS'x'
aS'str'
p41
aS'('
aS'x'
aS')'
aa(lp42
S'x'
aS'x'
aS'('
aS'x'
aS')'
aa(lp43
S'unicode'
p44
aS'('
aS'x'
aS'x'
aS')'
aa(lp45
S'x'
aS'='
aS'['
aS'x'
aS'x'
aS'x'
aS'x'
aS'x'
aS']'
aS'x'
aa(lp46
S'x'
aS'['
aS'x'
aS']'
aS'x'
aS'['
aS'x'
aS']'
aS'x'
aS'['
aS'x'
aS':'
aS']'
aa(lp47
S'x'
aS'['
aS':'
aS']'
aa(lp48
S'x'
aS'+'
aS'['
aS'x'
aS'x'
aS'x'
aS'x'
aS'x'
aS']'
aa(lp49
S'x'
aS'='
aS'['
aS'x'
aS'x'
aS'x'
aS'x'
aS'x'
aS']'
aS'x'
aS'**'
p50
aS'x'
aS'x'
aS'['
aS'x'
aS']'
aS'='
aS'x'
aS'x'
aa(lp51
S'x'
aS'x'
aS'('
aS'x'
aS')'
aS'x'
aS'x'
aS'('
aS'x'
aS'**'
p52
aS'x'
aS')'
aS'x'
aa(lp53
S'x'
aS'='
aS'['
aS'x'
aS'x'
aS'x'
aS'x'
aS'x'
aS'x'
aS'x'
aS']'
aS'x'
aS'x'
aS'['
aS'x'
aS':'
aS'x'
aS']'
aS'='
aS'['
aS'x'
aS'x'
aS'x'
aS']'
aS'x'
aS'x'
aS'['
aS'x'
aS':'
aS'x'
aS']'
aS'='
aS'['
aS']'
aS'x'
aS'x'
aS'['
aS':'
aS']'
aS'='
aS'['
aS']'
aS'x'
aa(lp54
S'x'
aS'='
aS'['
aS'x'
aS'x'
aS'x'
aS'x'
aS']'
aS'len'
p55
aS'('
aS'x'
aS')'
aa(lp56
S'x'
aS'='
aS'['
aS'x'
aS'x'
aS'x'
aS']'
aS'x'
aS'='
aS'['
aS'x'
aS'x'
aS'x'
aS']'
aS'x'
aS'='
aS'['
aS'x'
aS'x'
aS']'
aS'x'
aS'x'
aS'['
aS'x'
aS']'
aS'x'
aS'['
aS'x'
aS']'
aS'['
aS'x'
aS']'
aa(lp57
S'x'
aS'x'
aS'='
aS'x'
aS'x'
aS'while'
p58
aS'x'
aS'<'
aS'x'
aS':'
aS'print'
p59
aS'x'
aS'x'
aS'x'
aS'='
aS'x'
aS'x'
aa(lp60
S'x'
aS'='
aS'x'
aS'print'
p61
aS'x'
aS'x'
aS'x'
aS'x'
aS'x'
aS'x'
aa(lp62
S'x'
aS'x'
aS'='
aS'x'
aS'x'
aS'while'
p63
aS'x'
aS'<'
aS'x'
aS':'
aS'print'
p64
aS'x'
aS'x'
aS'x'
aS'='
aS'x'
aS'x'
aa(lp65
S'x'
aS'='
aS'int'
p66
aS'('
aS'raw_input'
p67
aS'('
aS'x'
aS')'
aS')'
aS'if'
p68
aS'x'
aS'<'
aS'x'
aS':'
aS'x'
aS'='
aS'x'
aS'print'
p69
aS'x'
aS'x'
aS'x'
aS'x'
aS'elif'
p70
aS'x'
aS'=='
p71
aS'x'
aS':'
aS'print'
p72
aS'x'
aS'elif'
p73
aS'x'
aS'=='
p74
aS'x'
aS':'
aS'print'
p75
aS'x'
aS'else'
p76
aS':'
aS'print'
p77
aS'x'
aa(lp78
S'x'
aS'='
aS'['
aS'x'
aS'x'
aS'x'
aS']'
aS'for'
p79
aS'x'
aS'in'
p80
aS'x'
aS':'
aS'print'
p81
aS'x'
aS'len'
p82
aS'('
aS'x'
aS')'
aa(lp83
S'for'
p84
aS'x'
aS'in'
p85
aS'x'
aS'['
aS':'
aS']'
aS':'
aS'if'
p86
aS'len'
p87
aS'('
aS'x'
aS')'
aS'>'
aS'x'
aS':'
aS'x'
aS'x'
aS'('
aS'x'
aS'x'
aS')'
aS'x'
aa(lp88
S'range'
p89
aS'('
aS'x'
aS')'
aa(lp90
S'range'
p91
aS'('
aS'x'
aS'x'
aS')'
aS'range'
p92
aS'('
aS'x'
aS'x'
aS'x'
aS')'
aS'range'
p93
aS'('
aS'x'
aS'x'
aS'x'
aS')'
aa(lp94
S'x'
aS'='
aS'['
aS'x'
aS'x'
aS'x'
aS'x'
aS'x'
aS']'
aS'for'
p95
aS'x'
aS'in'
p96
aS'range'
p97
aS'('
aS'len'
p98
aS'('
aS'x'
aS')'
aS')'
aS':'
aS'print'
p99
aS'x'
aS'x'
aS'['
aS'x'
aS']'
aa(lp100
S'for'
p101
aS'x'
aS'in'
p102
aS'range'
p103
aS'('
aS'x'
aS'x'
aS')'
aS':'
aS'for'
p104
aS'x'
aS'in'
p105
aS'range'
p106
aS'('
aS'x'
aS'x'
aS')'
aS':'
aS'if'
p107
aS'x'
aS'%'
aS'x'
aS'=='
p108
aS'x'
aS':'
aS'print'
p109
aS'x'
aS'x'
aS'x'
aS'x'
aS'x'
aS'break'
p110
aS'else'
p111
aS':'
aS'print'
p112
aS'x'
aS'x'
aS'x'
aS'x'
aS'x'
aa(lp113
S'for'
p114
aS'x'
aS'in'
p115
aS'range'
p116
aS'('
aS'x'
aS'x'
aS')'
aS':'
aS'if'
p117
aS'x'
aS'%'
aS'x'
aS'=='
p118
aS'x'
aS':'
aS'print'
p119
aS'x'
aS'x'
aS'continue'
p120
aS'print'
p121
aS'x'
aS'x'
aa(lp122
S'while'
p123
aS'True'
p124
aS':'
aS'pass'
p125
aa(lp126
S'class'
p127
aS'x'
aS':'
aS'pass'
p128
aa(lp129
S'def'
p130
aS'x'
aS'('
aS'x'
aS')'
aS':'
aS'pass'
p131
aa(lp132
S'def'
p133
aS'x'
aS'('
aS'x'
aS')'
aS':'
aS'x'
aS'x'
aS'x'
aS'x'
aS'x'
aS'x'
aS'x'
aS'x'
aS'x'
aS'x'
aS'='
aS'x'
aS'x'
aS'while'
p134
aS'x'
aS'<'
aS'x'
aS':'
aS'print'
p135
aS'x'
aS'x'
aS'x'
aS'='
aS'x'
aS'x'
aS'x'
aS'('
aS'x'
aS')'
aa(lp136
S'x'
aS'x'
aS'='
aS'x'
aS'x'
aS'('
aS'x'
aS')'
aa(lp137
S'x'
aS'('
aS'x'
aS')'
aS'print'
p138
aS'x'
aS'('
aS'x'
aS')'
aa(lp139
S'def'
p140
aS'x'
aS'('
aS'x'
aS')'
aS':'
aS'x'
aS'x'
aS'list'
p141
aS'x'
aS'x'
aS'x'
aS'x'
aS'x'
aS'x'
aS'x'
aS'x'
aS'x'
aS'='
aS'['
aS']'
aS'x'
aS'x'
aS'='
aS'x'
aS'x'
aS'while'
p142
aS'x'
aS'<'
aS'x'
aS':'
aS'x'
aS'x'
aS'('
aS'x'
aS')'
aS'x'
aS'x'
aS'='
aS'x'
aS'x'
aS'return'
p143
aS'x'
aS'x'
aS'='
aS'x'
aS'('
aS'x'
aS')'
aS'x'
aa(lp144
S'def'
p145
aS'x'
aS'('
aS'x'
aS')'
aS':'
aS'pass'
p146
aS'x'
aS'('
aS'x'
aS'x'
aS')'
aa(lp147
S'range'
p148
aS'('
aS'x'
aS'x'
aS')'
aS'x'
aS'='
aS'['
aS'x'
aS'x'
aS']'
aS'range'
p149
aS'('
aS'x'
aS')'
aa(lp150
S'def'
p151
aS'x'
aS'('
aS'x'
aS'x'
aS'x'
aS'x'
aS')'
aS':'
aS'print'
p152
aS'x'
aS'x'
aS'print'
p153
aS'x'
aS'x'
aS'x'
aS'print'
p154
aS'x'
aS'x'
aS'x'
aS'x'
aS'='
aS'{'
aS'x'
aS':'
aS'x'
aS'x'
aS':'
aS'x'
aS'x'
aS':'
aS'x'
aS'}'
aS'x'
aS'('
aS'x'
aS')'
aa(lp155
S'def'
p156
aS'x'
aS'('
aS'x'
aS')'
aS':'
aS'return'
p157
aS'lambda'
p158
aS'x'
aS':'
aS'x'
aS'+'
aS'x'
aS'x'
aS'='
aS'x'
aS'('
aS'x'
aS')'
aS'x'
aS'('
aS'x'
aS')'
aS'x'
aS'('
aS'x'
aS')'
aa(lp159
S'x'
aS'='
aS'['
aS'('
aS'x'
aS'x'
aS')'
aS'('
aS'x'
aS'x'
aS')'
aS'('
aS'x'
aS'x'
aS')'
aS'('
aS'x'
aS'x'
aS')'
aS']'
aS'x'
aS'x'
aS'('
aS'x'
aS'x'
aS':'
aS'x'
aS'['
aS'x'
aS']'
aS')'
aS'x'
aa(lp160
S'def'
p161
aS'x'
aS'('
aS')'
aS':'
aS'x'
aS'x'
aS'x'
aS'x'
aS'x'
aS'x'
aS'x'
aS'x'
aS'x'
aS'x'
aS'x'
aS'x'
aS'pass'
p162
aS'print'
p163
aS'x'
aS'__doc__'
p164
aa(lp165
S'x'
aS'='
aS'['
aS'x'
aS'x'
aS'x'
aS'x'
aS'x'
aS'x'
aS'x'
aS']'
aS'print'
p166
aS'x'
aS'x'
aS'('
aS'x'
aS')'
aS'x'
aS'x'
aS'('
aS'x'
aS'x'
aS')'
aS'x'
aS'x'
aS'('
aS'x'
aS')'
aS'x'
aS'x'
aS'('
aS'x'
aS'x'
aS')'
aS'x'
aS'x'
aS'('
aS'x'
aS')'
aS'x'
aS'x'
aS'x'
aS'('
aS'x'
aS')'
aS'x'
aS'x'
aS'('
aS'x'
aS')'
aS'x'
aS'x'
aS'x'
aS'('
aS')'
aS'x'
aS'x'
aS'x'
aS'('
aS')'
aS'x'
aS'x'
aS'x'
aS'('
aS')'
aS'x'
aa(lp167
S'x'
aS'='
aS'['
aS'x'
aS'x'
aS'x'
aS']'
aS'x'
aS'x'
aS'('
aS'x'
aS')'
aS'x'
aS'x'
aS'('
aS'x'
aS')'
aS'x'
aS'x'
aS'x'
aS'('
aS')'
aS'x'
aS'x'
aS'x'
aS'('
aS')'
aS'x'
aS'x'
aS'('
aS')'
aS'x'
aa(lp168
S'from'
p169
aS'x'
aS'import'
p170
aS'x'
aS'x'
aS'='
aS'x'
aS'('
aS'['
aS'x'
aS'x'
aS'x'
aS']'
aS')'
aS'x'
aS'x'
aS'('
aS'x'
aS')'
aS'x'
aS'x'
aS'('
aS'x'
aS')'
aS'x'
aS'x'
aS'('
aS')'
aS'x'
aS'x'
aS'('
aS')'
aS'x'
aa(lp171
S'def'
p172
aS'x'
aS'('
aS'x'
aS')'
aS':'
aS'return'
p173
aS'x'
aS'%'
aS'x'
aS'=='
p174
aS'x'
aS'or'
p175
aS'x'
aS'%'
aS'x'
aS'=='
p176
aS'x'
aS'filter'
p177
aS'('
aS'x'
aS'range'
p178
aS'('
aS'x'
aS'x'
aS')'
aS')'
aa(lp179
S'def'
p180
aS'x'
aS'('
aS'x'
aS')'
aS':'
aS'return'
p181
aS'x'
aS'map'
p182
aS'('
aS'x'
aS'range'
p183
aS'('
aS'x'
aS'x'
aS')'
aS')'
aa(lp184
S'x'
aS'='
aS'range'
p185
aS'('
aS'x'
aS')'
aS'def'
p186
aS'x'
aS'('
aS'x'
aS'x'
aS')'
aS':'
aS'return'
p187
aS'x'
aS'map'
p188
aS'('
aS'x'
aS'x'
aS'x'
aS')'
aa(lp189
S'def'
p190
aS'x'
aS'('
aS'x'
aS'x'
aS')'
aS':'
aS'return'
p191
aS'x'
aS'reduce'
p192
aS'('
aS'x'
aS'range'
p193
aS'('
aS'x'
aS'x'
aS')'
aS')'
aa(lp194
S'def'
p195
aS'sum'
p196
aS'('
aS'x'
aS')'
aS':'
aS'def'
p197
aS'x'
aS'('
aS'x'
aS'x'
aS')'
aS':'
aS'return'
p198
aS'x'
aS'return'
p199
aS'reduce'
p200
aS'('
aS'x'
aS'x'
aS'x'
aS')'
aS'sum'
p201
aS'('
aS'range'
p202
aS'('
aS'x'
aS'x'
aS')'
aS')'
aS'sum'
p203
aS'('
aS'['
aS']'
aS')'
aa(lp204
S'x'
aS'='
aS'['
aS']'
aS'for'
p205
aS'x'
aS'in'
p206
aS'range'
p207
aS'('
aS'x'
aS')'
aS':'
aS'x'
aS'x'
aS'('
aS'x'
aS')'
aS'x'
aa(lp208
S'['
aS'('
aS'x'
aS'x'
aS')'
aS'for'
p209
aS'x'
aS'in'
p210
aS'['
aS'x'
aS'x'
aS'x'
aS']'
aS'for'
p211
aS'x'
aS'in'
p212
aS'['
aS'x'
aS'x'
aS'x'
aS']'
aS'if'
p213
aS'x'
aS'!='
p214
aS'x'
aS']'
aa(lp215
S'x'
aS'='
aS'['
aS']'
aS'for'
p216
aS'x'
aS'in'
p217
aS'['
aS'x'
aS'x'
aS'x'
aS']'
aS':'
aS'for'
p218
aS'x'
aS'in'
p219
aS'['
aS'x'
aS'x'
aS'x'
aS']'
aS':'
aS'if'
p220
aS'x'
aS'!='
p221
aS'x'
aS':'
aS'x'
aS'x'
aS'('
aS'('
aS'x'
aS'x'
aS')'
aS')'
aS'x'
aa(lp222
S'x'
aS'='
aS'['
aS'x'
aS'x'
aS'x'
aS'x'
aS'x'
aS']'
aS'['
aS'x'
aS'for'
p223
aS'x'
aS'in'
p224
aS'x'
aS']'
aS'['
aS'x'
aS'for'
p225
aS'x'
aS'in'
p226
aS'x'
aS'if'
p227
aS'x'
aS'>='
p228
aS'x'
aS']'
aS'['
aS'abs'
p229
aS'('
aS'x'
aS')'
aS'for'
p230
aS'x'
aS'in'
p231
aS'x'
aS']'
aS'x'
aS'='
aS'['
aS'x'
aS'x'
aS'x'
aS'x'
aS'x'
aS'x'
aS'x'
aS'x'
aS']'
aS'['
aS'x'
aS'x'
aS'('
aS')'
aS'for'
p232
aS'x'
aS'in'
p233
aS'x'
aS']'
aS'['
aS'('
aS'x'
aS'x'
aS')'
aS'for'
p234
aS'x'
aS'in'
p235
aS'range'
p236
aS'('
aS'x'
aS')'
aS']'
aS'['
aS'x'
aS'x'
aS'for'
p237
aS'x'
aS'in'
p238
aS'range'
p239
aS'('
aS'x'
aS')'
aS']'
aS'x'
aS'='
aS'['
aS'['
aS'x'
aS'x'
aS'x'
aS']'
aS'['
aS'x'
aS'x'
aS'x'
aS']'
aS'['
aS'x'
aS'x'
aS'x'
aS']'
aS']'
aS'['
aS'x'
aS'for'
p240
aS'x'
aS'in'
p241
aS'x'
aS'for'
p242
aS'x'
aS'in'
p243
aS'x'
aS']'
aa(lp244
S'from'
p245
aS'x'
aS'import'
p246
aS'x'
aS'['
aS'str'
p247
aS'('
aS'round'
p248
aS'('
aS'x'
aS'x'
aS')'
aS')'
aS'for'
p249
aS'x'
aS'in'
p250
aS'range'
p251
aS'('
aS'x'
aS'x'
aS')'
aS']'
aa(lp252
S'x'
aS'='
aS'['
aS'['
aS'x'
aS'x'
aS'x'
aS'x'
aS']'
aS'['
aS'x'
aS'x'
aS'x'
aS'x'
aS']'
aS'['
aS'x'
aS'x'
aS'x'
aS'x'
aS']'
aS']'
aa(lp253
S'['
aS'['
aS'x'
aS'['
aS'x'
aS']'
aS'for'
p254
aS'x'
aS'in'
p255
aS'x'
aS']'
aS'for'
p256
aS'x'
aS'in'
p257
aS'range'
p258
aS'('
aS'x'
aS')'
aS']'
aa(lp259
S'x'
aS'='
aS'['
aS']'
aS'for'
p260
aS'x'
aS'in'
p261
aS'range'
p262
aS'('
aS'x'
aS')'
aS':'
aS'x'
aS'x'
aS'('
aS'['
aS'x'
aS'['
aS'x'
aS']'
aS'for'
p263
aS'x'
aS'in'
p264
aS'x'
aS']'
aS')'
aS'x'
aa(lp265
S'x'
aS'='
aS'['
aS']'
aS'for'
p266
aS'x'
aS'in'
p267
aS'range'
p268
aS'('
aS'x'
aS')'
aS':'
aS'x'
aS'='
aS'['
aS']'
aS'for'
p269
aS'x'
aS'in'
p270
aS'x'
aS':'
aS'x'
aS'x'
aS'('
aS'x'
aS'['
aS'x'
aS']'
aS')'
aS'x'
aS'x'
aS'('
aS'x'
aS')'
aS'x'
aa(lp271
S'zip'
p272
aS'('
aS'x'
aS')'
aa(lp273
S'x'
aS'='
aS'['
aS'x'
aS'x'
aS'x'
aS'x'
aS'x'
aS'x'
aS'x'
aS'x'
aS']'
aS'del'
p274
aS'x'
aS'['
aS'x'
aS']'
aS'x'
aS'del'
p275
aS'x'
aS'['
aS'x'
aS':'
aS'x'
aS']'
aS'x'
aS'del'
p276
aS'x'
aS'['
aS':'
aS']'
aS'x'
aa(lp277
S'del'
p278
aS'x'
aa(lp279
S'x'
aS'='
aS'x'
aS'x'
aS'x'
aS'x'
aS'['
aS'x'
aS']'
aS'x'
aS'x'
aS'='
aS'x'
aS'('
aS'x'
aS'x'
aS'x'
aS'x'
aS'x'
aS')'
aS'x'
aS'x'
aS'['
aS'x'
aS']'
aS'='
aS'x'
aS'x'
aS'='
aS'('
aS'['
aS'x'
aS'x'
aS'x'
aS']'
aS'['
aS'x'
aS'x'
aS'x'
aS']'
aS')'
aS'x'
aa(lp280
S'x'
aS'='
aS'('
aS')'
aS'x'
aS'='
aS'x'
aS'len'
p281
aS'('
aS'x'
aS')'
aS'len'
p282
aS'('
aS'x'
aS')'
aS'x'
aa(lp283
S'x'
aS'x'
aS'x'
aS'='
aS'x'
aa(lp284
S'x'
aS'='
aS'['
aS'x'
aS'x'
aS'x'
aS'x'
aS'x'
aS'x'
aS']'
aS'x'
aS'='
aS'set'
p285
aS'('
aS'x'
aS')'
aS'x'
aS'x'
aS'in'
p286
aS'x'
aS'x'
aS'in'
p287
aS'x'
aS'x'
aS'='
aS'set'
p288
aS'('
aS'x'
aS')'
aS'x'
aS'='
aS'set'
p289
aS'('
aS'x'
aS')'
aS'x'
aS'x'
aS'-'
aS'x'
aS'x'
aS'x'
aS'x'
aS'x'
aS'x'
aS'x'
aS'x'
aS'x'
aS'x'
aa(lp290
S'x'
aS'='
aS'{'
aS'x'
aS'for'
p291
aS'x'
aS'in'
p292
aS'x'
aS'if'
p293
aS'x'
aS'not'
p294
aS'in'
p295
aS'x'
aS'}'
aS'x'
aa(lp296
S'x'
aS'='
aS'{'
aS'x'
aS':'
aS'x'
aS'x'
aS':'
aS'x'
aS'}'
aS'x'
aS'['
aS'x'
aS']'
aS'='
aS'x'
aS'x'
aS'x'
aS'['
aS'x'
aS']'
aS'del'
p297
aS'x'
aS'['
aS'x'
aS']'
aS'x'
aS'['
aS'x'
aS']'
aS'='
aS'x'
aS'x'
aS'x'
aS'x'
aS'('
aS')'
aS'x'
aS'in'
p298
aS'x'
aa(lp299
S'dict'
p300
aS'('
aS'['
aS'('
aS'x'
aS'x'
aS')'
aS'('
aS'x'
aS'x'
aS')'
aS'('
aS'x'
aS'x'
aS')'
aS']'
aS')'
aa(lp301
S'{'
aS'x'
aS':'
aS'x'
aS'for'
p302
aS'x'
aS'in'
p303
aS'('
aS'x'
aS'x'
aS'x'
aS')'
aS'}'
aa(lp304
S'dict'
p305
aS'('
aS'x'
aS'x'
aS'x'
aS')'
aa(lp306
S'for'
p307
aS'x'
aS'x'
aS'in'
p308
aS'enumerate'
p309
aS'('
aS'['
aS'x'
aS'x'
aS'x'
aS']'
aS')'
aS':'
aS'print'
p310
aS'x'
aS'x'
aa(lp311
S'x'
aS'='
aS'['
aS'x'
aS'x'
aS'x'
aS'x'
aS']'
aS'x'
aS'='
aS'['
aS'x'
aS'x'
aS'x'
aS'x'
aS'x'
aS']'
aS'for'
p312
aS'x'
aS'x'
aS'in'
p313
aS'zip'
p314
aS'('
aS'x'
aS'x'
aS')'
aS':'
aS'print'
p315
aS'x'
aS'is'
p316
aS'x'
aS'{'
aS'x'
aS'}'
aS'x'
aS'x'
aS'is'
p317
aS'{'
aS'x'
aS'}'
aS'x'
aS'format'
p318
aS'('
aS'x'
aS'x'
aS')'
aa(lp319
S'for'
p320
aS'x'
aS'in'
p321
aS'reversed'
p322
aS'('
aS'xrange'
p323
aS'('
aS'x'
aS'x'
aS'x'
aS')'
aS')'
aS':'
aS'print'
p324
aS'x'
aa(lp325
S'x'
aS'='
aS'['
aS'x'
aS'x'
aS'x'
aS'x'
aS'x'
aS'x'
aS']'
aS'for'
p326
aS'x'
aS'in'
p327
aS'sorted'
p328
aS'('
aS'set'
p329
aS'('
aS'x'
aS')'
aS')'
aS':'
aS'print'
p330
aS'x'
aa(lp331
S'x'
aS'='
aS'{'
aS'x'
aS':'
aS'x'
aS'x'
aS'x'
aS':'
aS'x'
aS'x'
aS'}'
aS'for'
p332
aS'x'
aS'x'
aS'in'
p333
aS'x'
aS'x'
aS'('
aS')'
aS':'
aS'print'
p334
aS'x'
aS'x'
aa(lp335
S'import'
p336
aS'x'
aS'x'
aS'='
aS'['
aS'x'
aS'x'
aS'float'
p337
aS'('
aS'x'
aS')'
aS'x'
aS'x'
aS'x'
aS'x'
aS'x'
aS'x'
aS'float'
p338
aS'('
aS'x'
aS')'
aS'x'
aS'x'
aS']'
aS'x'
aS'='
aS'['
aS']'
aS'for'
p339
aS'x'
aS'in'
p340
aS'x'
aS':'
aS'if'
p341
aS'not'
p342
aS'x'
aS'x'
aS'('
aS'x'
aS')'
aS':'
aS'x'
aS'x'
aS'('
aS'x'
aS')'
aS'x'
aa(lp343
S'x'
aS'x'
aS'x'
aS'='
aS'x'
aS'x'
aS'x'
aS'x'
aS'x'
aS'='
aS'x'
aS'or'
p344
aS'x'
aS'or'
p345
aS'x'
aS'x'
aa(lp346
S'import'
p347
aS'x'
aa(lp348
S'x'
aS'x'
aS'('
aS'x'
aS')'
aS'x'
aS'x'
aS'('
aS'x'
aS')'
aS'x'
aS'__name__'
p349
aa(lp350
S'x'
aS'='
aS'x'
aS'x'
aS'x'
aS'('
aS'x'
aS')'
aa(lp351
S'from'
p352
aS'x'
aS'import'
p353
aS'x'
aS'x'
aS'x'
aS'('
aS'x'
aS')'
aa(lp354
S'from'
p355
aS'x'
aS'import'
p356
aS'*'
aS'x'
aS'('
aS'x'
aS')'
aa(lp357
S'import'
p358
aS'x'
aa(lp359
S'import'
p360
aS'x'
aS'x'
aS'x'
aS'x'
aS'x'
aS'x'
aS'x'
aS'='
aS'x'
aS'x'
aa(lp361
S'import'
p362
aS'x'
aS'x'
aS'x'
aS'x'
aS'('
aS'x'
aS')'
aa(lp363
S'import'
p364
aS'x'
aS'x'
aS'dir'
p365
aS'('
aS'x'
aS')'
aS'dir'
p366
aS'('
aS'x'
aS')'
aa(lp367
S'x'
aS'='
aS'['
aS'x'
aS'x'
aS'x'
aS'x'
aS'x'
aS']'
aS'import'
p368
aS'x'
aS'x'
aS'='
aS'x'
aS'x'
aS'dir'
p369
aS'('
aS')'
aa(lp370
S'import'
p371
aS'x'
aS'dir'
p372
aS'('
aS'x'
aS')'
aa.